; Function Attrs: mustprogress nofree norecurse nosync nounwind willreturn memory(readwrite, inaccessiblemem: none) uwtable
define hidden void @_ZN9Assembler4divlE8Register(ptr nocapture noundef nonnull readonly align 8 dereferenceable(40) %0, i32 %1) local_unnamed_addr #8 align 2 {
  %3 = sext i32 %1 to i64
  %4 = getelementptr inbounds %"class.Register::RegisterImpl", ptr getelementptr inbounds (i8, ptr @all_RegisterImpls, i64 1), i64 %3
  %5 = ptrtoint ptr %4 to i64
  %6 = trunc i64 %5 to i32
  %7 = sub i32 %6, ptrtoint (ptr getelementptr inbounds (i8, ptr @all_RegisterImpls, i64 1) to i32)
  %8 = icmp sgt i32 %7, 15
  br i1 %8, label %9, label %23

9:                                                ; preds = %2
  %10 = and i32 %7, 16
  %11 = lshr i32 %7, 3
  %12 = and i32 %11, 1
  %.1.i.i.i = or disjoint i32 %12, %10
  %13 = getelementptr inbounds i8, ptr %0, i64 8
  %14 = load ptr, ptr %13, align 8
  %15 = getelementptr inbounds i8, ptr %14, i64 16
  %16 = load ptr, ptr %15, align 8
  %17 = getelementptr inbounds i8, ptr %16, i64 1
  store i8 -43, ptr %16, align 1
  store ptr %17, ptr %15, align 8
  %18 = load ptr, ptr %13, align 8
  %.0.i.i2.i.i.i = trunc nuw nsw i32 %.1.i.i.i to i8
  %19 = getelementptr inbounds i8, ptr %18, i64 16
  %20 = load ptr, ptr %19, align 8
  %21 = getelementptr inbounds i8, ptr %20, i64 1
  store i8 %.0.i.i2.i.i.i, ptr %20, align 1
  store ptr %21, ptr %19, align 8
  %22 = and i32 %7, 7
  br label %_ZN9Assembler17prefix_and_encodeEibb.exit

23:                                               ; preds = %2
  %24 = icmp sgt i32 %7, 7
  br i1 %24, label %25, label %_ZN9Assembler17prefix_and_encodeEibb.exit

25:                                               ; preds = %23
  %26 = getelementptr inbounds i8, ptr %0, i64 8
  %27 = load ptr, ptr %26, align 8
  %28 = getelementptr inbounds i8, ptr %27, i64 16
  %29 = load ptr, ptr %28, align 8
  %30 = getelementptr inbounds i8, ptr %29, i64 1
  store i8 65, ptr %29, align 1
  store ptr %30, ptr %28, align 8
  %31 = add nsw i32 %7, -8
  br label %_ZN9Assembler17prefix_and_encodeEibb.exit

_ZN9Assembler17prefix_and_encodeEibb.exit:        ; preds = %25, %23, %9
  %.0.i = phi i32 [ %22, %9 ], [ %31, %25 ], [ %7, %23 ]
  %32 = getelementptr inbounds i8, ptr %0, i64 8
  %33 = load ptr, ptr %32, align 8
  %34 = trunc i32 %.0.i to i8
  %.0.i2.i = or i8 %34, -16
  %35 = getelementptr inbounds i8, ptr %33, i64 16
  %36 = load ptr, ptr %35, align 8
  %37 = getelementptr inbounds i8, ptr %36, i64 1
  store i8 -9, ptr %36, align 1
  %38 = getelementptr inbounds i8, ptr %36, i64 2
  store i8 %.0.i2.i, ptr %37, align 1
  store ptr %38, ptr %35, align 8
  ret void
}